; Function Attrs: mustprogress nounwind uwtable
define internal fastcc void @_ZN5clang19RecursiveASTVisitorIN12_GLOBAL__N_111TypeIndexerEE20TraverseAnnotateAttrEPNS_12AnnotateAttrE(ptr noundef nonnull readonly align 1 captures(none) dereferenceable(1) %0, ptr noundef readonly captures(none) %1) unnamed_addr #0 align 2 {
  %3 = getelementptr inbounds nuw i8, ptr %1, i64 56
  %4 = load ptr, ptr %3, align 8
  %5 = getelementptr inbounds nuw i8, ptr %1, i64 48
  %6 = load i32, ptr %5, align 8
  %7 = zext i32 %6 to i64
  %8 = getelementptr inbounds nuw ptr, ptr %4, i64 %7
  %.not19 = icmp eq i32 %6, 0
  br i1 %.not19, label %._crit_edge, label %.lr.ph

.lr.ph:                                           ; preds = %2
  %9 = getelementptr inbounds nuw i8, ptr %0, i64 8
  %10 = getelementptr inbounds nuw i8, ptr %0, i64 16
  br label %11

11:                                               ; preds = %.lr.ph, %11
  %.01720 = phi ptr [ %4, %.lr.ph ], [ %16, %11 ]
  %12 = load ptr, ptr %.01720, align 8
  %13 = load ptr, ptr %0, align 8
  %14 = load ptr, ptr %9, align 8
  %15 = load ptr, ptr %10, align 8
  tail call void @_ZN5clang5index15IndexingContext9indexBodyEPKNS_4StmtEPKNS_9NamedDeclEPKNS_11DeclContextE(ptr noundef nonnull align 8 dereferenceable(64) %13, ptr noundef %12, ptr noundef %14, ptr noundef %15) #13
  %16 = getelementptr inbounds nuw i8, ptr %.01720, i64 8
  %.not = icmp eq ptr %16, %8
  br i1 %.not, label %._crit_edge, label %11, !llvm.loop !36

._crit_edge:                                      ; preds = %11, %2
  %17 = getelementptr inbounds nuw i8, ptr %1, i64 72
  %18 = load ptr, ptr %17, align 8
  %19 = getelementptr inbounds nuw i8, ptr %1, i64 64
  %20 = load i32, ptr %19, align 8
  %21 = zext i32 %20 to i64
  %22 = getelementptr inbounds nuw ptr, ptr %18, i64 %21
  %.not1821 = icmp eq i32 %20, 0
  br i1 %.not1821, label %._crit_edge25, label %.lr.ph24

.lr.ph24:                                         ; preds = %._crit_edge
  %23 = getelementptr inbounds nuw i8, ptr %0, i64 8
  %24 = getelementptr inbounds nuw i8, ptr %0, i64 16
  br label %25

25:                                               ; preds = %.lr.ph24, %25
  %.01622 = phi ptr [ %18, %.lr.ph24 ], [ %30, %25 ]
  %26 = load ptr, ptr %.01622, align 8
  %27 = load ptr, ptr %0, align 8
  %28 = load ptr, ptr %23, align 8
  %29 = load ptr, ptr %24, align 8
  tail call void @_ZN5clang5index15IndexingContext9indexBodyEPKNS_4StmtEPKNS_9NamedDeclEPKNS_11DeclContextE(ptr noundef nonnull align 8 dereferenceable(64) %27, ptr noundef %26, ptr noundef %28, ptr noundef %29) #13
  %30 = getelementptr inbounds nuw i8, ptr %.01622, i64 8
  %.not18 = icmp eq ptr %30, %22
  br i1 %.not18, label %._crit_edge25, label %25, !llvm.loop !37

._crit_edge25:                                    ; preds = %25, %._crit_edge
  ret void
}